target datalayout = "e-m:e-p270:32:32-p271:32:32-p272:64:64-i64:64-i128:128-f80:128-n8:16:32:64-S128"
target triple = "x86_64-unknown-linux-gnu"

%"class.icu_75::RegexPattern" = type { %"class.icu_75::UObject", ptr, ptr, i32, ptr, %"class.icu_75::UnicodeString", ptr, ptr, i32, i32, i32, i32, ptr, i32, i32, i32, ptr, i32, ptr, i8, ptr }
%"class.icu_75::UObject" = type { ptr }
%"class.icu_75::UnicodeString" = type { %"class.icu_75::Replaceable", %"union.icu_75::UnicodeString::StackBufferOrFields" }
%"class.icu_75::Replaceable" = type { %"class.icu_75::UObject" }
%"union.icu_75::UnicodeString::StackBufferOrFields" = type { %struct.anon.0, [32 x i8] }
%struct.anon.0 = type { i16, i32, i32, ptr }

; Function Attrs: mustprogress nounwind uwtable
define internal noundef signext i8 @_ZL9U_FAILURE10UErrorCode(i32 noundef %code) #0 {
entry:
  %code.addr = alloca i32, align 4
  store i32 %code, ptr %code.addr, align 4
  %0 = load i32, ptr %code.addr, align 4
  %cmp = icmp sgt i32 %0, 0
  %conv = zext i1 %cmp to i8
  ret i8 %conv
}

; Function Attrs: mustprogress uwtable
define noundef zeroext i1 @_ZN6icu_7512RegexPattern19initNamedCaptureMapEv(ptr noundef nonnull align 8 dereferenceable(200) %this) #1 align 2 {
entry:
  %retval = alloca i1, align 1
  %this.addr = alloca ptr, align 8
  store ptr %this, ptr %this.addr, align 8
  %this1 = load ptr, ptr %this.addr, align 8
  %fNamedCaptureMap = getelementptr inbounds %"class.icu_75::RegexPattern", ptr %this1, i32 0, i32 20
  %0 = load ptr, ptr %fNamedCaptureMap, align 8
  %tobool = icmp ne ptr %0, null
  br i1 %tobool, label %if.then, label %if.end

if.then:                                          ; preds = %entry
  store i1 true, ptr %retval, align 1
  br label %return

if.end:                                           ; preds = %entry
  %fDeferredStatus = getelementptr inbounds %"class.icu_75::RegexPattern", ptr %this1, i32 0, i32 8
  %call = call ptr @uhash_openSize_75(ptr noundef @uhash_hashUnicodeString_75, ptr noundef @uhash_compareUnicodeString_75, ptr noundef @uhash_compareLong_75, i32 noundef 7, ptr noundef %fDeferredStatus)
  %fNamedCaptureMap2 = getelementptr inbounds %"class.icu_75::RegexPattern", ptr %this1, i32 0, i32 20
  store ptr %call, ptr %fNamedCaptureMap2, align 8
  %fDeferredStatus3 = getelementptr inbounds %"class.icu_75::RegexPattern", ptr %this1, i32 0, i32 8
  %1 = load i32, ptr %fDeferredStatus3, align 8
  %call4 = call noundef signext i8 @_ZL9U_FAILURE10UErrorCode(i32 noundef %1)
  %tobool5 = icmp ne i8 %call4, 0
  br i1 %tobool5, label %if.then6, label %if.end7

if.then6:                                         ; preds = %if.end
  store i1 false, ptr %retval, align 1
  br label %return

if.end7:                                          ; preds = %if.end
  %fNamedCaptureMap8 = getelementptr inbounds %"class.icu_75::RegexPattern", ptr %this1, i32 0, i32 20
  %2 = load ptr, ptr %fNamedCaptureMap8, align 8
  %call9 = call ptr @uhash_setKeyDeleter_75(ptr noundef %2, ptr noundef @uprv_deleteUObject_75)
  store i1 true, ptr %retval, align 1
  br label %return

return:                                           ; preds = %if.end7, %if.then6, %if.then
  %3 = load i1, ptr %retval, align 1
  ret i1 %3
}