; Function Attrs: mustprogress uwtable
define noundef zeroext i1 @_ZN6icu_7512RegexPattern19initNamedCaptureMapEv(ptr noundef nonnull align 8 dereferenceable(200) %this) local_unnamed_addr #1 align 2 {
entry:
  %fNamedCaptureMap = getelementptr inbounds i8, ptr %this, i64 192
  %0 = load ptr, ptr %fNamedCaptureMap, align 8
  %tobool.not = icmp eq ptr %0, null
  br i1 %tobool.not, label %if.end, label %return

if.end:                                           ; preds = %entry
  %fDeferredStatus = getelementptr inbounds i8, ptr %this, i64 120
  %call = tail call ptr @uhash_openSize_75(ptr noundef nonnull @uhash_hashUnicodeString_75, ptr noundef nonnull @uhash_compareUnicodeString_75, ptr noundef nonnull @uhash_compareLong_75, i32 noundef 7, ptr noundef nonnull %fDeferredStatus)
  store ptr %call, ptr %fNamedCaptureMap, align 8
  %1 = load i32, ptr %fDeferredStatus, align 8
  %cmp.i = icmp slt i32 %1, 1
  br i1 %cmp.i, label %if.end7, label %return

if.end7:                                          ; preds = %if.end
  %call9 = tail call ptr @uhash_setKeyDeleter_75(ptr noundef %call, ptr noundef nonnull @uprv_deleteUObject_75)
  br label %return

return:                                           ; preds = %if.end, %entry, %if.end7
  %retval.0 = phi i1 [ true, %if.end7 ], [ true, %entry ], [ false, %if.end ]
  ret i1 %retval.0
}